target datalayout = "e-m:e-p270:32:32-p271:32:32-p272:64:64-i64:64-i128:128-f80:128-n8:16:32:64-S128"
target triple = "x86_64-pc-linux-gnu"

%struct.b2Vec2 = type { float, float }
%struct.Camera = type { %struct.b2Vec2, float, i32, i32 }

; Function Attrs: inlinehint mustprogress nounwind uwtable
define linkonce_odr dso_local <2 x float> @_Z5b2Add6b2Vec2S_(<2 x float> %0, <2 x float> %1) #7 comdat {
  %3 = alloca %struct.b2Vec2, align 4
  %4 = alloca %struct.b2Vec2, align 4
  %5 = alloca %struct.b2Vec2, align 4
  store <2 x float> %0, ptr %4, align 4
  store <2 x float> %1, ptr %5, align 4
  %6 = getelementptr inbounds nuw %struct.b2Vec2, ptr %3, i32 0, i32 0
  %7 = getelementptr inbounds nuw %struct.b2Vec2, ptr %4, i32 0, i32 0
  %8 = load float, ptr %7, align 4, !tbaa !15
  %9 = getelementptr inbounds nuw %struct.b2Vec2, ptr %5, i32 0, i32 0
  %10 = load float, ptr %9, align 4, !tbaa !15
  %11 = fadd float %8, %10
  store float %11, ptr %6, align 4, !tbaa !15
  %12 = getelementptr inbounds nuw %struct.b2Vec2, ptr %3, i32 0, i32 1
  %13 = getelementptr inbounds nuw %struct.b2Vec2, ptr %4, i32 0, i32 1
  %14 = load float, ptr %13, align 4, !tbaa !16
  %15 = getelementptr inbounds nuw %struct.b2Vec2, ptr %5, i32 0, i32 1
  %16 = load float, ptr %15, align 4, !tbaa !16
  %17 = fadd float %14, %16
  store float %17, ptr %12, align 4, !tbaa !16
  %18 = load <2 x float>, ptr %3, align 4
  ret <2 x float> %18
}

; Function Attrs: inlinehint mustprogress nounwind uwtable
define linkonce_odr dso_local <2 x float> @_Z5b2Sub6b2Vec2S_(<2 x float> %0, <2 x float> %1) #7 comdat {
  %3 = alloca %struct.b2Vec2, align 4
  %4 = alloca %struct.b2Vec2, align 4
  %5 = alloca %struct.b2Vec2, align 4
  store <2 x float> %0, ptr %4, align 4
  store <2 x float> %1, ptr %5, align 4
  %6 = getelementptr inbounds nuw %struct.b2Vec2, ptr %3, i32 0, i32 0
  %7 = getelementptr inbounds nuw %struct.b2Vec2, ptr %4, i32 0, i32 0
  %8 = load float, ptr %7, align 4, !tbaa !15
  %9 = getelementptr inbounds nuw %struct.b2Vec2, ptr %5, i32 0, i32 0
  %10 = load float, ptr %9, align 4, !tbaa !15
  %11 = fsub float %8, %10
  store float %11, ptr %6, align 4, !tbaa !15
  %12 = getelementptr inbounds nuw %struct.b2Vec2, ptr %3, i32 0, i32 1
  %13 = getelementptr inbounds nuw %struct.b2Vec2, ptr %4, i32 0, i32 1
  %14 = load float, ptr %13, align 4, !tbaa !16
  %15 = getelementptr inbounds nuw %struct.b2Vec2, ptr %5, i32 0, i32 1
  %16 = load float, ptr %15, align 4, !tbaa !16
  %17 = fsub float %14, %16
  store float %17, ptr %12, align 4, !tbaa !16
  %18 = load <2 x float>, ptr %3, align 4
  ret <2 x float> %18
}

; Function Attrs: mustprogress uwtable
define dso_local <2 x float> @_ZN6Camera20ConvertScreenToWorldE6b2Vec2(ptr noundef nonnull align 4 dereferenceable(20) %0, <2 x float> %1) #6 align 2 {
  %3 = alloca %struct.b2Vec2, align 4
  %4 = alloca %struct.b2Vec2, align 4
  %5 = alloca ptr, align 8
  %6 = alloca float, align 4
  %7 = alloca float, align 4
  %8 = alloca float, align 4
  %9 = alloca float, align 4
  %10 = alloca float, align 4
  %11 = alloca %struct.b2Vec2, align 4
  %12 = alloca %struct.b2Vec2, align 4
  %13 = alloca %struct.b2Vec2, align 4
  %14 = alloca %struct.b2Vec2, align 4
  %15 = alloca %struct.b2Vec2, align 4
  %16 = alloca %struct.b2Vec2, align 4
  %17 = alloca %struct.b2Vec2, align 4
  store <2 x float> %1, ptr %4, align 4
  store ptr %0, ptr %5, align 8, !tbaa !4
  %18 = load ptr, ptr %5, align 8
  call void @llvm.lifetime.start.p0(i64 4, ptr %6) #1
  %19 = getelementptr inbounds nuw %struct.Camera, ptr %18, i32 0, i32 2
  %20 = load i32, ptr %19, align 4, !tbaa !9
  %21 = sitofp i32 %20 to float
  store float %21, ptr %6, align 4, !tbaa !18
  call void @llvm.lifetime.start.p0(i64 4, ptr %7) #1
  %22 = getelementptr inbounds nuw %struct.Camera, ptr %18, i32 0, i32 3
  %23 = load i32, ptr %22, align 4, !tbaa !14
  %24 = sitofp i32 %23 to float
  store float %24, ptr %7, align 4, !tbaa !18
  call void @llvm.lifetime.start.p0(i64 4, ptr %8) #1
  %25 = getelementptr inbounds nuw %struct.b2Vec2, ptr %4, i32 0, i32 0
  %26 = load float, ptr %25, align 4, !tbaa !15
  %27 = load float, ptr %6, align 4, !tbaa !18
  %28 = fdiv float %26, %27
  store float %28, ptr %8, align 4, !tbaa !18
  call void @llvm.lifetime.start.p0(i64 4, ptr %9) #1
  %29 = load float, ptr %7, align 4, !tbaa !18
  %30 = getelementptr inbounds nuw %struct.b2Vec2, ptr %4, i32 0, i32 1
  %31 = load float, ptr %30, align 4, !tbaa !16
  %32 = fsub float %29, %31
  %33 = load float, ptr %7, align 4, !tbaa !18
  %34 = fdiv float %32, %33
  store float %34, ptr %9, align 4, !tbaa !18
  call void @llvm.lifetime.start.p0(i64 4, ptr %10) #1
  %35 = load float, ptr %6, align 4, !tbaa !18
  %36 = load float, ptr %7, align 4, !tbaa !18
  %37 = fdiv float %35, %36
  store float %37, ptr %10, align 4, !tbaa !18
  call void @llvm.lifetime.start.p0(i64 8, ptr %11) #1
  %38 = getelementptr inbounds nuw %struct.b2Vec2, ptr %11, i32 0, i32 0
  %39 = getelementptr inbounds nuw %struct.Camera, ptr %18, i32 0, i32 1
  %40 = load float, ptr %39, align 4, !tbaa !19
  %41 = load float, ptr %10, align 4, !tbaa !18
  %42 = fmul float %40, %41
  store float %42, ptr %38, align 4, !tbaa !15
  %43 = getelementptr inbounds nuw %struct.b2Vec2, ptr %11, i32 0, i32 1
  %44 = getelementptr inbounds nuw %struct.Camera, ptr %18, i32 0, i32 1
  %45 = load float, ptr %44, align 4, !tbaa !19
  store float %45, ptr %43, align 4, !tbaa !16
  call void @llvm.lifetime.start.p0(i64 8, ptr %12) #1
  %46 = getelementptr inbounds nuw %struct.Camera, ptr %18, i32 0, i32 0
  call void @llvm.memcpy.p0.p0.i64(ptr align 4 %13, ptr align 4 %46, i64 8, i1 false), !tbaa.struct !17
  call void @llvm.memcpy.p0.p0.i64(ptr align 4 %14, ptr align 4 %11, i64 8, i1 false), !tbaa.struct !17
  %47 = load <2 x float>, ptr %13, align 4
  %48 = load <2 x float>, ptr %14, align 4
  %49 = call <2 x float> @_Z5b2Sub6b2Vec2S_(<2 x float> %47, <2 x float> %48)
  store <2 x float> %49, ptr %12, align 4
  call void @llvm.lifetime.start.p0(i64 8, ptr %15) #1
  %50 = getelementptr inbounds nuw %struct.Camera, ptr %18, i32 0, i32 0
  call void @llvm.memcpy.p0.p0.i64(ptr align 4 %16, ptr align 4 %50, i64 8, i1 false), !tbaa.struct !17
  call void @llvm.memcpy.p0.p0.i64(ptr align 4 %17, ptr align 4 %11, i64 8, i1 false), !tbaa.struct !17
  %51 = load <2 x float>, ptr %16, align 4
  %52 = load <2 x float>, ptr %17, align 4
  %53 = call <2 x float> @_Z5b2Add6b2Vec2S_(<2 x float> %51, <2 x float> %52)
  store <2 x float> %53, ptr %15, align 4
  %54 = getelementptr inbounds nuw %struct.b2Vec2, ptr %3, i32 0, i32 0
  %55 = load float, ptr %8, align 4, !tbaa !18
  %56 = fsub float 1.000000e+00, %55
  %57 = getelementptr inbounds nuw %struct.b2Vec2, ptr %12, i32 0, i32 0
  %58 = load float, ptr %57, align 4, !tbaa !15
  %59 = fmul float %56, %58
  %60 = load float, ptr %8, align 4, !tbaa !18
  %61 = getelementptr inbounds nuw %struct.b2Vec2, ptr %15, i32 0, i32 0
  %62 = load float, ptr %61, align 4, !tbaa !15
  %63 = fmul float %60, %62
  %64 = fadd float %59, %63
  store float %64, ptr %54, align 4, !tbaa !15
  %65 = getelementptr inbounds nuw %struct.b2Vec2, ptr %3, i32 0, i32 1
  %66 = load float, ptr %9, align 4, !tbaa !18
  %67 = fsub float 1.000000e+00, %66
  %68 = getelementptr inbounds nuw %struct.b2Vec2, ptr %12, i32 0, i32 1
  %69 = load float, ptr %68, align 4, !tbaa !16
  %70 = fmul float %67, %69
  %71 = load float, ptr %9, align 4, !tbaa !18
  %72 = getelementptr inbounds nuw %struct.b2Vec2, ptr %15, i32 0, i32 1
  %73 = load float, ptr %72, align 4, !tbaa !16
  %74 = fmul float %71, %73
  %75 = fadd float %70, %74
  store float %75, ptr %65, align 4, !tbaa !16
  call void @llvm.lifetime.end.p0(i64 8, ptr %15) #1
  call void @llvm.lifetime.end.p0(i64 8, ptr %12) #1
  call void @llvm.lifetime.end.p0(i64 8, ptr %11) #1
  call void @llvm.lifetime.end.p0(i64 4, ptr %10) #1
  call void @llvm.lifetime.end.p0(i64 4, ptr %9) #1
  call void @llvm.lifetime.end.p0(i64 4, ptr %8) #1
  call void @llvm.lifetime.end.p0(i64 4, ptr %7) #1
  call void @llvm.lifetime.end.p0(i64 4, ptr %6) #1
  %76 = load <2 x float>, ptr %3, align 4
  ret <2 x float> %76
}