; Function Attrs: mustprogress nofree norecurse nosync nounwind willreturn memory(argmem: read) uwtable
define dso_local <2 x float> @_ZN6Camera20ConvertScreenToWorldE6b2Vec2(ptr noundef nonnull readonly align 4 captures(none) dereferenceable(20) %0, <2 x float> %1) local_unnamed_addr #3 align 2 {
  %3 = getelementptr inbounds nuw i8, ptr %0, i64 12
  %4 = load i32, ptr %3, align 4, !tbaa !4
  %5 = sitofp i32 %4 to float
  %6 = getelementptr inbounds nuw i8, ptr %0, i64 16
  %7 = load i32, ptr %6, align 4, !tbaa !11
  %8 = sitofp i32 %7 to float
  %.sroa.019.0.vec.extract = extractelement <2 x float> %1, i64 0
  %9 = fdiv float %.sroa.019.0.vec.extract, %5
  %.sroa.019.4.vec.extract = extractelement <2 x float> %1, i64 1
  %10 = fsub float %8, %.sroa.019.4.vec.extract
  %11 = fdiv float %10, %8
  %12 = fdiv float %5, %8
  %13 = getelementptr inbounds nuw i8, ptr %0, i64 8
  %14 = load float, ptr %13, align 4, !tbaa !13
  %15 = fmul float %14, %12
  %.sroa.04.0.copyload = load <2 x float>, ptr %0, align 4
  %.sroa.01.0.vec.extract.i = extractelement <2 x float> %.sroa.04.0.copyload, i64 0
  %16 = fsub float %.sroa.01.0.vec.extract.i, %15
  %.sroa.01.4.vec.extract.i = extractelement <2 x float> %.sroa.04.0.copyload, i64 1
  %17 = fsub float %.sroa.01.4.vec.extract.i, %14
  %18 = fadd float %.sroa.01.0.vec.extract.i, %15
  %19 = fadd float %14, %.sroa.01.4.vec.extract.i
  %20 = fsub float 1.000000e+00, %9
  %21 = fmul float %20, %16
  %22 = fmul float %9, %18
  %23 = fadd float %21, %22
  %.sroa.020.0.vec.insert = insertelement <2 x float> poison, float %23, i64 0
  %24 = fsub float 1.000000e+00, %11
  %25 = fmul float %24, %17
  %26 = fmul float %11, %19
  %27 = fadd float %25, %26
  %.sroa.020.4.vec.insert = insertelement <2 x float> %.sroa.020.0.vec.insert, float %27, i64 1
  ret <2 x float> %.sroa.020.4.vec.insert
}